; Function Attrs: null_pointer_is_valid sspstrong uwtable
define internal noundef i32 @dissect_aid_response(ptr noundef %0, ptr readnone captures(none) %1, ptr noundef %2, ptr readnone captures(none) %3) #2 {
  %5 = load i32, ptr @hf_ieee80211_s1g_aid_rsp_aid_group_aid, align 4
  %6 = tail call ptr @proto_tree_add_item(ptr noundef %2, i32 noundef %5, ptr noundef %0, i32 noundef 0, i32 noundef 2, i32 noundef -2147483648)
  %7 = load i32, ptr @hf_ieee80211_s1g_aid_rsp_aid_switch_count, align 4
  %8 = tail call ptr @proto_tree_add_item(ptr noundef %2, i32 noundef %7, ptr noundef %0, i32 noundef 2, i32 noundef 1, i32 noundef 0)
  %9 = load i32, ptr @hf_ieee80211_s1g_aid_rsp_aid_response_interval, align 4
  %10 = tail call ptr @proto_tree_add_item(ptr noundef %2, i32 noundef %9, ptr noundef %0, i32 noundef 3, i32 noundef 2, i32 noundef -2147483648)
  ret i32 5
}